; Function Attrs: nounwind uwtable
define internal ptr @test_pytime_object_to_timespec(ptr readnone captures(none) %0, ptr noundef %1) #0 {
  %3 = alloca ptr, align 8
  %4 = alloca i64, align 8
  %5 = alloca i64, align 8
  %6 = alloca i32, align 4
  call void @llvm.lifetime.start.p0(i64 8, ptr nonnull %3) #3
  call void @llvm.lifetime.start.p0(i64 8, ptr nonnull %4) #3
  call void @llvm.lifetime.start.p0(i64 8, ptr nonnull %5) #3
  call void @llvm.lifetime.start.p0(i64 4, ptr nonnull %6) #3
  %7 = call i32 (ptr, ptr, ...) @PyArg_ParseTuple(ptr noundef %1, ptr noundef nonnull @.str.12, ptr noundef nonnull %3, ptr noundef nonnull %6) #3
  %.not = icmp eq i32 %7, 0
  br i1 %.not, label %19, label %8

8:                                                ; preds = %2
  %9 = load i32, ptr %6, align 4, !tbaa !8
  %or.cond5.i = icmp ugt i32 %9, 3
  br i1 %or.cond5.i, label %check_time_rounding.exit.thread, label %check_time_rounding.exit

check_time_rounding.exit.thread:                  ; preds = %8
  %10 = load ptr, ptr @PyExc_ValueError, align 8, !tbaa !3
  call void @PyErr_SetString(ptr noundef %10, ptr noundef nonnull @.str.13) #3
  br label %19

check_time_rounding.exit:                         ; preds = %8
  %11 = load ptr, ptr %3, align 8, !tbaa !3
  %12 = call i32 @_PyTime_ObjectToTimespec(ptr noundef %11, ptr noundef nonnull %4, ptr noundef nonnull %5, i32 noundef %9) #3
  %13 = icmp eq i32 %12, -1
  br i1 %13, label %19, label %14

14:                                               ; preds = %check_time_rounding.exit
  %15 = load i64, ptr %4, align 8, !tbaa !10
  %16 = call ptr @_PyLong_FromTime_t(i64 noundef %15) #3
  %17 = load i64, ptr %5, align 8, !tbaa !10
  %18 = call ptr (ptr, ...) @Py_BuildValue(ptr noundef nonnull @.str.15, ptr noundef %16, i64 noundef %17) #3
  br label %19

19:                                               ; preds = %check_time_rounding.exit.thread, %check_time_rounding.exit, %2, %14
  %.0 = phi ptr [ %18, %14 ], [ null, %2 ], [ null, %check_time_rounding.exit ], [ null, %check_time_rounding.exit.thread ]
  call void @llvm.lifetime.end.p0(i64 4, ptr nonnull %6) #3
  call void @llvm.lifetime.end.p0(i64 8, ptr nonnull %5) #3
  call void @llvm.lifetime.end.p0(i64 8, ptr nonnull %4) #3
  call void @llvm.lifetime.end.p0(i64 8, ptr nonnull %3) #3
  ret ptr %.0
}